target datalayout = "e-m:e-p270:32:32-p271:32:32-p272:64:64-i64:64-i128:128-f80:128-n8:16:32:64-S128"
target triple = "x86_64-pc-linux-gnu"

%struct.ssl_st = type { i32, i16, i16, ptr, ptr, ptr, ptr, ptr, i32, i32, ptr, ptr, i32, i32, ptr, ptr, ptr, ptr, ptr, ptr, ptr, ptr, i32, i32, [32 x i8], ptr, ptr, ptr, ptr, ptr, ptr, ptr, i64, %struct.crypto_ex_data_st, ptr, i32, i32, i32, i32, i16, ptr, i32, i64, ptr, ptr, ptr, ptr, ptr, ptr, i32, i32, ptr, ptr, i8, i8, i32 }
%struct.crypto_ex_data_st = type { ptr }

; Function Attrs: nounwind uwtable
define internal i32 @ext_ticket_parse_serverhello(ptr noundef %0, ptr noundef %1, ptr noundef %2) #0 {
  %4 = alloca i32, align 4
  %5 = alloca ptr, align 8
  %6 = alloca ptr, align 8
  %7 = alloca ptr, align 8
  store ptr %0, ptr %5, align 8, !tbaa !69
  store ptr %1, ptr %6, align 8, !tbaa !55
  store ptr %2, ptr %7, align 8, !tbaa !52
  %8 = load ptr, ptr %5, align 8, !tbaa !69
  %9 = getelementptr inbounds nuw %struct.ssl_st, ptr %8, i32 0, i32 41
  store i32 0, ptr %9, align 8, !tbaa !188
  %10 = load ptr, ptr %7, align 8, !tbaa !52
  %11 = icmp eq ptr %10, null
  br i1 %11, label %12, label %13

12:                                               ; preds = %3
  store i32 1, ptr %4, align 4
  br label %21

13:                                               ; preds = %3
  %14 = load ptr, ptr %7, align 8, !tbaa !52
  %15 = call i64 @CBS_len(ptr noundef %14)
  %16 = icmp ne i64 %15, 0
  br i1 %16, label %17, label %18

17:                                               ; preds = %13
  store i32 0, ptr %4, align 4
  br label %21

18:                                               ; preds = %13
  %19 = load ptr, ptr %5, align 8, !tbaa !69
  %20 = getelementptr inbounds nuw %struct.ssl_st, ptr %19, i32 0, i32 41
  store i32 1, ptr %20, align 8, !tbaa !188
  store i32 1, ptr %4, align 4
  br label %21

21:                                               ; preds = %18, %17, %12
  %22 = load i32, ptr %4, align 4
  ret i32 %22
}