; Function Attrs: nounwind uwtable
define internal range(i32 0, 2) i32 @ext_ticket_parse_serverhello(ptr noundef writeonly captures(none) initializes((296, 300)) %0, ptr readnone captures(none) %1, ptr noundef %2) #0 {
  %4 = getelementptr inbounds nuw i8, ptr %0, i64 296
  store i32 0, ptr %4, align 8, !tbaa !157
  %5 = icmp eq ptr %2, null
  br i1 %5, label %9, label %6

6:                                                ; preds = %3
  %7 = tail call i64 @CBS_len(ptr noundef nonnull %2) #21
  %.not = icmp eq i64 %7, 0
  br i1 %.not, label %8, label %9

8:                                                ; preds = %6
  store i32 1, ptr %4, align 8, !tbaa !157
  br label %9

9:                                                ; preds = %6, %3, %8
  %.0 = phi i32 [ 1, %8 ], [ 1, %3 ], [ 0, %6 ]
  ret i32 %.0
}